; Function Attrs: mustprogress uwtable
define internal fastcc void @_ZN20minEnclosingTriangleL30lineEquationDeterminedByPointsERKN2cv6Point_IfEES4_RdS5_S5_(float %.0.val, float %.4.val, float %.0.val1, float %.4.val3, ptr noundef nonnull align 8 captures(none) dereferenceable(8) %0, ptr noundef nonnull writeonly align 8 captures(none) dereferenceable(8) %1, ptr noundef nonnull writeonly align 8 captures(none) dereferenceable(8) %2) unnamed_addr #4 personality ptr @__gxx_personality_v0 {
  %4 = alloca %"class.std::__cxx11::basic_string", align 8
  %5 = alloca %"class.std::allocator", align 1
  %6 = fpext float %.0.val to double
  %7 = fpext float %.0.val1 to double
  %8 = fsub double %6, %7
  %9 = tail call noundef double @llvm.fabs.f64(double %8)
  %10 = tail call noundef double @llvm.fabs.f64(double %6)
  %11 = tail call noundef double @llvm.fabs.f64(double %7)
  %12 = fcmp ogt double %10, 1.000000e+00
  %.sroa.speculated2.i.i.i = select i1 %12, double %10, double 1.000000e+00
  %13 = fcmp olt double %.sroa.speculated2.i.i.i, %11
  %.sroa.speculated.i.i.i = select i1 %13, double %11, double %.sroa.speculated2.i.i.i
  %14 = fmul double %.sroa.speculated.i.i.i, 1.000000e-05
  %15 = fcmp ugt double %9, %14
  br i1 %15, label %_ZN20minEnclosingTriangleL14areEqualPointsERKN2cv6Point_IfEES4_.exit.thread, label %_ZN20minEnclosingTriangleL14areEqualPointsERKN2cv6Point_IfEES4_.exit

_ZN20minEnclosingTriangleL14areEqualPointsERKN2cv6Point_IfEES4_.exit: ; preds = %3
  %16 = fpext float %.4.val to double
  %17 = fpext float %.4.val3 to double
  %18 = fsub double %16, %17
  %19 = tail call noundef double @llvm.fabs.f64(double %18)
  %20 = tail call noundef double @llvm.fabs.f64(double %16)
  %21 = tail call noundef double @llvm.fabs.f64(double %17)
  %22 = fcmp ogt double %20, 1.000000e+00
  %.sroa.speculated2.i.i4.i = select i1 %22, double %20, double 1.000000e+00
  %23 = fcmp olt double %.sroa.speculated2.i.i4.i, %21
  %.sroa.speculated.i.i5.i = select i1 %23, double %21, double %.sroa.speculated2.i.i4.i
  %24 = fmul double %.sroa.speculated.i.i5.i, 1.000000e-05
  %25 = fcmp ugt double %19, %24
  br i1 %25, label %_ZN20minEnclosingTriangleL14areEqualPointsERKN2cv6Point_IfEES4_.exit.thread, label %26

26:                                               ; preds = %_ZN20minEnclosingTriangleL14areEqualPointsERKN2cv6Point_IfEES4_.exit
  call void @llvm.lifetime.start.p0(i64 32, ptr nonnull %4) #17
  call void @llvm.lifetime.start.p0(i64 1, ptr nonnull %5) #17
  call void @_ZNSt7__cxx1112basic_stringIcSt11char_traitsIcESaIcEEC2EPKcRKS3_(ptr noundef nonnull align 8 dereferenceable(32) %4, ptr noundef nonnull @.str.3, ptr noundef nonnull align 1 dereferenceable(1) %5)
  invoke void @_ZN2cv5errorEiRKNSt7__cxx1112basic_stringIcSt11char_traitsIcESaIcEEEPKcS9_i(i32 noundef -215, ptr noundef nonnull align 8 dereferenceable(32) %4, ptr noundef nonnull @__func__._ZN20minEnclosingTriangleL30lineEquationDeterminedByPointsERKN2cv6Point_IfEES4_RdS5_S5_, ptr noundef nonnull @.str.1, i32 noundef 1411) #18
          to label %27 unwind label %28

27:                                               ; preds = %26
  unreachable

28:                                               ; preds = %26
  %29 = landingpad { ptr, i32 }
          cleanup
  %30 = load ptr, ptr %4, align 8, !tbaa !3
  %31 = getelementptr inbounds nuw i8, ptr %4, i64 16
  %32 = icmp eq ptr %30, %31
  br i1 %32, label %_ZNKSt7__cxx1112basic_stringIcSt11char_traitsIcESaIcEE11_M_is_localEv.exit.thread.i.i, label %_ZNKSt7__cxx1112basic_stringIcSt11char_traitsIcESaIcEE11_M_is_localEv.exit.i.i

_ZNKSt7__cxx1112basic_stringIcSt11char_traitsIcESaIcEE11_M_is_localEv.exit.thread.i.i: ; preds = %28
  %33 = getelementptr inbounds nuw i8, ptr %4, i64 8
  %34 = load i64, ptr %33, align 8, !tbaa !11
  %35 = icmp ult i64 %34, 16
  call void @llvm.assume(i1 %35)
  br label %_ZNSt7__cxx1112basic_stringIcSt11char_traitsIcESaIcEED2Ev.exit

_ZNKSt7__cxx1112basic_stringIcSt11char_traitsIcESaIcEE11_M_is_localEv.exit.i.i: ; preds = %28
  call void @_ZdlPv(ptr noundef %30) #19
  br label %_ZNSt7__cxx1112basic_stringIcSt11char_traitsIcESaIcEED2Ev.exit

_ZNSt7__cxx1112basic_stringIcSt11char_traitsIcESaIcEED2Ev.exit: ; preds = %_ZNKSt7__cxx1112basic_stringIcSt11char_traitsIcESaIcEE11_M_is_localEv.exit.i.i, %_ZNKSt7__cxx1112basic_stringIcSt11char_traitsIcESaIcEE11_M_is_localEv.exit.thread.i.i
  call void @llvm.lifetime.end.p0(i64 1, ptr nonnull %5) #17
  call void @llvm.lifetime.end.p0(i64 32, ptr nonnull %4) #17
  resume { ptr, i32 } %29

_ZN20minEnclosingTriangleL14areEqualPointsERKN2cv6Point_IfEES4_.exit.thread: ; preds = %3, %_ZN20minEnclosingTriangleL14areEqualPointsERKN2cv6Point_IfEES4_.exit
  %36 = fsub float %.4.val3, %.4.val
  %37 = fpext float %36 to double
  store double %37, ptr %0, align 8, !tbaa !32
  %38 = fsub float %.0.val, %.0.val1
  %39 = fpext float %38 to double
  store double %39, ptr %1, align 8, !tbaa !32
  %40 = fneg float %.4.val
  %41 = fpext float %40 to double
  %42 = load double, ptr %0, align 8, !tbaa !32
  %43 = fneg double %6
  %44 = fmul double %42, %43
  %45 = tail call double @llvm.fmuladd.f64(double %41, double %39, double %44)
  store double %45, ptr %2, align 8, !tbaa !32
  ret void
}